; ModuleID = '14/48.c'
source_filename = "14/48.c"
target datalayout = "e-m:e-p270:32:32-p271:32:32-p272:64:64-i64:64-f80:128-n8:16:32:64-S128"
target triple = "x86_64-pc-linux-gnu"

%struct.stu = type { i32, i32, i32, i32 }

@.str = private unnamed_addr constant [3 x i8] c"%d\00", align 1
@.str.1 = private unnamed_addr constant [7 x i8] c"%d%d%d\00", align 1
@.str.2 = private unnamed_addr constant [7 x i8] c"%d %d\0A\00", align 1

; Function Attrs: noinline nounwind uwtable
define dso_local void @main() #0 {
  %1 = alloca i32, align 4
  %2 = alloca i32, align 4
  %3 = alloca i32, align 4
  %4 = alloca i32, align 4
  %5 = alloca i32, align 4
  %6 = alloca [100000 x %struct.stu], align 16
  %7 = call i32 (i8*, ...) @__isoc99_scanf(i8* getelementptr inbounds ([3 x i8], [3 x i8]* @.str, i64 0, i64 0), i32* %1)
  store i32 0, i32* %2, align 4
  br label %8

8:                                                ; preds = %26, %0
  %9 = load i32, i32* %2, align 4
  %10 = load i32, i32* %1, align 4
  %11 = icmp slt i32 %9, %10
  br i1 %11, label %12, label %29

12:                                               ; preds = %8
  %13 = load i32, i32* %2, align 4
  %14 = sext i32 %13 to i64
  %15 = getelementptr inbounds [100000 x %struct.stu], [100000 x %struct.stu]* %6, i64 0, i64 %14
  %16 = getelementptr inbounds %struct.stu, %struct.stu* %15, i32 0, i32 0
  %17 = load i32, i32* %2, align 4
  %18 = sext i32 %17 to i64
  %19 = getelementptr inbounds [100000 x %struct.stu], [100000 x %struct.stu]* %6, i64 0, i64 %18
  %20 = getelementptr inbounds %struct.stu, %struct.stu* %19, i32 0, i32 1
  %21 = load i32, i32* %2, align 4
  %22 = sext i32 %21 to i64
  %23 = getelementptr inbounds [100000 x %struct.stu], [100000 x %struct.stu]* %6, i64 0, i64 %22
  %24 = getelementptr inbounds %struct.stu, %struct.stu* %23, i32 0, i32 2
  %25 = call i32 (i8*, ...) @__isoc99_scanf(i8* getelementptr inbounds ([7 x i8], [7 x i8]* @.str.1, i64 0, i64 0), i32* %16, i32* %20, i32* %24)
  br label %26

26:                                               ; preds = %12
  %27 = load i32, i32* %2, align 4
  %28 = add nsw i32 %27, 1
  store i32 %28, i32* %2, align 4
  br label %8

29:                                               ; preds = %8
  store i32 0, i32* %2, align 4
  br label %30

30:                                               ; preds = %50, %29
  %31 = load i32, i32* %2, align 4
  %32 = load i32, i32* %1, align 4
  %33 = icmp slt i32 %31, %32
  br i1 %33, label %34, label %53

34:                                               ; preds = %30
  %35 = load i32, i32* %2, align 4
  %36 = sext i32 %35 to i64
  %37 = getelementptr inbounds [100000 x %struct.stu], [100000 x %struct.stu]* %6, i64 0, i64 %36
  %38 = getelementptr inbounds %struct.stu, %struct.stu* %37, i32 0, i32 1
  %39 = load i32, i32* %38, align 4
  %40 = load i32, i32* %2, align 4
  %41 = sext i32 %40 to i64
  %42 = getelementptr inbounds [100000 x %struct.stu], [100000 x %struct.stu]* %6, i64 0, i64 %41
  %43 = getelementptr inbounds %struct.stu, %struct.stu* %42, i32 0, i32 2
  %44 = load i32, i32* %43, align 8
  %45 = add nsw i32 %39, %44
  %46 = load i32, i32* %2, align 4
  %47 = sext i32 %46 to i64
  %48 = getelementptr inbounds [100000 x %struct.stu], [100000 x %struct.stu]* %6, i64 0, i64 %47
  %49 = getelementptr inbounds %struct.stu, %struct.stu* %48, i32 0, i32 3
  store i32 %45, i32* %49, align 4
  br label %50

50:                                               ; preds = %34
  %51 = load i32, i32* %2, align 4
  %52 = add nsw i32 %51, 1
  store i32 %52, i32* %2, align 4
  br label %30

53:                                               ; preds = %30
  store i32 0, i32* %5, align 4
  br label %54

54:                                               ; preds = %100, %53
  %55 = load i32, i32* %5, align 4
  %56 = icmp slt i32 %55, 3
  br i1 %56, label %57, label %103

57:                                               ; preds = %54
  %58 = getelementptr inbounds [100000 x %struct.stu], [100000 x %struct.stu]* %6, i64 0, i64 0
  %59 = getelementptr inbounds %struct.stu, %struct.stu* %58, i32 0, i32 3
  %60 = load i32, i32* %59, align 4
  store i32 %60, i32* %4, align 4
  store i32 0, i32* %2, align 4
  br label %61

61:                                               ; preds = %81, %57
  %62 = load i32, i32* %2, align 4
  %63 = load i32, i32* %1, align 4
  %64 = icmp slt i32 %62, %63
  br i1 %64, label %65, label %84

65:                                               ; preds = %61
  %66 = load i32, i32* %2, align 4
  %67 = sext i32 %66 to i64
  %68 = getelementptr inbounds [100000 x %struct.stu], [100000 x %struct.stu]* %6, i64 0, i64 %67
  %69 = getelementptr inbounds %struct.stu, %struct.stu* %68, i32 0, i32 3
  %70 = load i32, i32* %69, align 4
  %71 = load i32, i32* %4, align 4
  %72 = icmp sgt i32 %70, %71
  br i1 %72, label %73, label %80

73:                                               ; preds = %65
  %74 = load i32, i32* %2, align 4
  %75 = sext i32 %74 to i64
  %76 = getelementptr inbounds [100000 x %struct.stu], [100000 x %struct.stu]* %6, i64 0, i64 %75
  %77 = getelementptr inbounds %struct.stu, %struct.stu* %76, i32 0, i32 3
  %78 = load i32, i32* %77, align 4
  store i32 %78, i32* %4, align 4
  %79 = load i32, i32* %2, align 4
  store i32 %79, i32* %3, align 4
  br label %80

80:                                               ; preds = %73, %65
  br label %81

81:                                               ; preds = %80
  %82 = load i32, i32* %2, align 4
  %83 = add nsw i32 %82, 1
  store i32 %83, i32* %2, align 4
  br label %61

84:                                               ; preds = %61
  %85 = load i32, i32* %3, align 4
  %86 = sext i32 %85 to i64
  %87 = getelementptr inbounds [100000 x %struct.stu], [100000 x %struct.stu]* %6, i64 0, i64 %86
  %88 = getelementptr inbounds %struct.stu, %struct.stu* %87, i32 0, i32 0
  %89 = load i32, i32* %88, align 16
  %90 = load i32, i32* %3, align 4
  %91 = sext i32 %90 to i64
  %92 = getelementptr inbounds [100000 x %struct.stu], [100000 x %struct.stu]* %6, i64 0, i64 %91
  %93 = getelementptr inbounds %struct.stu, %struct.stu* %92, i32 0, i32 3
  %94 = load i32, i32* %93, align 4
  %95 = call i32 (i8*, ...) @printf(i8* getelementptr inbounds ([7 x i8], [7 x i8]* @.str.2, i64 0, i64 0), i32 %89, i32 %94)
  %96 = load i32, i32* %3, align 4
  %97 = sext i32 %96 to i64
  %98 = getelementptr inbounds [100000 x %struct.stu], [100000 x %struct.stu]* %6, i64 0, i64 %97
  %99 = getelementptr inbounds %struct.stu, %struct.stu* %98, i32 0, i32 3
  store i32 0, i32* %99, align 4
  br label %100

100:                                              ; preds = %84
  %101 = load i32, i32* %5, align 4
  %102 = add nsw i32 %101, 1
  store i32 %102, i32* %5, align 4
  br label %54

103:                                              ; preds = %54
  ret void
}

declare dso_local i32 @__isoc99_scanf(i8*, ...) #1

declare dso_local i32 @printf(i8*, ...) #1


!llvm.module.flags = !{!0}
!llvm.ident = !{!1}

!0 = !{i32 1, !"wchar_size", i32 4}
!1 = !{!"clang version 10.0.0-4ubuntu1 "}
